target datalayout = "e-m:e-p270:32:32-p271:32:32-p272:64:64-i64:64-i128:128-f80:128-n8:16:32:64-S128"
target triple = "x86_64-pc-linux-gnu"

%struct.pg_conn = type { ptr, ptr, ptr, ptr, ptr, ptr, ptr, ptr, ptr, ptr, ptr, ptr, ptr, ptr, ptr, ptr, ptr, ptr, ptr, ptr, ptr, ptr, ptr, ptr, ptr, ptr, ptr, ptr, ptr, ptr, ptr, ptr, ptr, ptr, ptr, ptr, ptr, ptr, ptr, ptr, ptr, ptr, ptr, i8, ptr, i32, %struct.PGNoticeHooks, ptr, i32, i32, i32, i32, i32, [6 x i8], i8, i8, i32, i8, i8, i32, i8, i32, ptr, ptr, i32, i32, ptr, ptr, ptr, ptr, ptr, i32, %struct.SockAddr, %struct.SockAddr, i32, i32, i8, i8, i8, i8, i8, i8, ptr, i8, i32, [1 x ptr], i8, i8, ptr, ptr, i32, i32, i32, i8, i8, i32, i32, ptr, i8, i64, ptr, i64, ptr, i32, i32, ptr, i32, i8, i32, i32, i32, i32, ptr, %struct.pg_prng_state, ptr, i32, i32, i32, i32, ptr, i32, i32, i32, i32, ptr, i32, ptr, i8, ptr, ptr, ptr, i32, i8, i8, i8, i8, i8, i8, i8, i8, %struct.PQExpBufferData, i32, %struct.PQExpBufferData }
%struct.PGNoticeHooks = type { ptr, ptr, ptr, ptr }
%struct.SockAddr = type { %struct.sockaddr_storage, i32 }
%struct.sockaddr_storage = type { i16, [118 x i8], i64 }
%struct.pg_prng_state = type { i64, i64 }
%struct.PQExpBufferData = type { ptr, i64, i64 }
%struct.pg_cancel_conn = type { %struct.pg_conn }

@.str.3 = private unnamed_addr constant [56 x i8] c"cancel request is already being sent on this connection\00", align 1

; Function Attrs: nounwind uwtable
define i32 @PQcancelStart(ptr noundef %0) #0 {
  %2 = alloca i32, align 4
  %3 = alloca ptr, align 8
  store ptr %0, ptr %3, align 8
  %4 = load ptr, ptr %3, align 8
  %5 = icmp ne ptr %4, null
  br i1 %5, label %6, label %12

6:                                                ; preds = %1
  %7 = load ptr, ptr %3, align 8
  %8 = getelementptr inbounds nuw %struct.pg_cancel_conn, ptr %7, i32 0, i32 0
  %9 = getelementptr inbounds nuw %struct.pg_conn, ptr %8, i32 0, i32 50
  %10 = load i32, ptr %9, align 8
  %11 = icmp eq i32 %10, 1
  br i1 %11, label %12, label %13

12:                                               ; preds = %6, %1
  store i32 0, ptr %2, align 4
  br label %29

13:                                               ; preds = %6
  %14 = load ptr, ptr %3, align 8
  %15 = getelementptr inbounds nuw %struct.pg_cancel_conn, ptr %14, i32 0, i32 0
  %16 = getelementptr inbounds nuw %struct.pg_conn, ptr %15, i32 0, i32 50
  %17 = load i32, ptr %16, align 8
  %18 = icmp ne i32 %17, 14
  br i1 %18, label %19, label %25

19:                                               ; preds = %13
  %20 = load ptr, ptr %3, align 8
  %21 = getelementptr inbounds nuw %struct.pg_cancel_conn, ptr %20, i32 0, i32 0
  call void (ptr, ptr, ...) @libpq_append_conn_error(ptr noundef %21, ptr noundef @.str.3)
  %22 = load ptr, ptr %3, align 8
  %23 = getelementptr inbounds nuw %struct.pg_cancel_conn, ptr %22, i32 0, i32 0
  %24 = getelementptr inbounds nuw %struct.pg_conn, ptr %23, i32 0, i32 50
  store i32 1, ptr %24, align 8
  store i32 0, ptr %2, align 4
  br label %29

25:                                               ; preds = %13
  %26 = load ptr, ptr %3, align 8
  %27 = getelementptr inbounds nuw %struct.pg_cancel_conn, ptr %26, i32 0, i32 0
  %28 = call i32 @pqConnectDBStart(ptr noundef %27)
  store i32 %28, ptr %2, align 4
  br label %29

29:                                               ; preds = %25, %19, %12
  %30 = load i32, ptr %2, align 4
  ret i32 %30
}