; Function Attrs: nounwind uwtable
define i32 @PQcancelStart(ptr noundef %0) local_unnamed_addr #0 {
  %.not = icmp eq ptr %0, null
  br i1 %.not, label %8, label %2

2:                                                ; preds = %1
  %3 = getelementptr inbounds nuw i8, ptr %0, i64 416
  %4 = load i32, ptr %3, align 8
  switch i32 %4, label %5 [
    i32 1, label %8
    i32 14, label %6
  ]

5:                                                ; preds = %2
  tail call void (ptr, ptr, ...) @libpq_append_conn_error(ptr noundef nonnull %0, ptr noundef nonnull @.str.3) #16
  store i32 1, ptr %3, align 8
  br label %8

6:                                                ; preds = %2
  %7 = tail call i32 @pqConnectDBStart(ptr noundef nonnull %0) #16
  br label %8

8:                                                ; preds = %2, %1, %6, %5
  %.0 = phi i32 [ 0, %5 ], [ %7, %6 ], [ 0, %2 ], [ 0, %1 ]
  ret i32 %.0
}